; Function Attrs: mustprogress uwtable
define void @_ZN19OpenColorIO_v2_5dev5Baker14setDisplayViewEPKcS2_(ptr noundef nonnull readonly align 8 captures(none) dereferenceable(8) %0, ptr noundef %1, ptr noundef %2) local_unnamed_addr #3 align 2 personality ptr @__gxx_personality_v0 {
  %.not = icmp eq ptr %1, null
  %.not6 = icmp eq ptr %2, null
  %4 = xor i1 %.not, %.not6
  br i1 %4, label %5, label %10

5:                                                ; preds = %3
  %6 = tail call ptr @__cxa_allocate_exception(i64 16) #28
  invoke void @_ZN19OpenColorIO_v2_5dev9ExceptionC1EPKc(ptr noundef nonnull align 8 dereferenceable(16) %6, ptr noundef nonnull @.str.2)
          to label %7 unwind label %8

7:                                                ; preds = %5
  tail call void @__cxa_throw(ptr nonnull %6, ptr nonnull @_ZTIN19OpenColorIO_v2_5dev9ExceptionE, ptr nonnull @_ZN19OpenColorIO_v2_5dev9ExceptionD1Ev) #30
  unreachable

8:                                                ; preds = %5
  %9 = landingpad { ptr, i32 }
          cleanup
  tail call void @__cxa_free_exception(ptr nonnull %6) #28
  resume { ptr, i32 } %9

10:                                               ; preds = %3
  %11 = load ptr, ptr %0, align 8, !tbaa !22
  %12 = getelementptr inbounds nuw i8, ptr %11, i64 296
  %13 = getelementptr inbounds nuw i8, ptr %11, i64 304
  %14 = load i64, ptr %13, align 8, !tbaa !28
  %15 = tail call noundef i64 @strlen(ptr noundef nonnull dereferenceable(1) %1) #28
  %16 = tail call noundef nonnull align 8 dereferenceable(32) ptr @_ZNSt7__cxx1112basic_stringIcSt11char_traitsIcESaIcEE10_M_replaceEmmPKcm(ptr noundef nonnull align 8 dereferenceable(32) %12, i64 noundef 0, i64 noundef %14, ptr noundef nonnull %1, i64 noundef %15)
  %17 = load ptr, ptr %0, align 8, !tbaa !22
  %18 = getelementptr inbounds nuw i8, ptr %17, i64 328
  %19 = getelementptr inbounds nuw i8, ptr %17, i64 336
  %20 = load i64, ptr %19, align 8, !tbaa !28
  %21 = tail call noundef i64 @strlen(ptr noundef nonnull dereferenceable(1) %2) #28
  %22 = tail call noundef nonnull align 8 dereferenceable(32) ptr @_ZNSt7__cxx1112basic_stringIcSt11char_traitsIcESaIcEE10_M_replaceEmmPKcm(ptr noundef nonnull align 8 dereferenceable(32) %18, i64 noundef 0, i64 noundef %20, ptr noundef nonnull %2, i64 noundef %21)
  ret void
}